; Function Attrs: mustprogress nounwind uwtable
define hidden noundef zeroext i1 @_ZN19ParallelCompactData10initializeE9MemRegion(ptr nocapture noundef nonnull align 8 dereferenceable(40) %0, ptr %1, i64 %2) local_unnamed_addr #0 align 2 {
  store ptr %1, ptr %0, align 8
  %4 = lshr i64 %2, 16
  %5 = tail call noundef ptr @_ZN19ParallelCompactData13create_vspaceEmm(ptr noundef nonnull align 8 dereferenceable(40) %0, i64 noundef %4, i64 noundef 40)
  %6 = getelementptr inbounds i8, ptr %0, i64 8
  store ptr %5, ptr %6, align 8
  %.not.i = icmp ne ptr %5, null
  br i1 %.not.i, label %7, label %_ZN19ParallelCompactData22initialize_region_dataEm.exit

7:                                                ; preds = %3
  %8 = getelementptr inbounds i8, ptr %5, i64 16
  %9 = load ptr, ptr %8, align 8
  %10 = getelementptr inbounds i8, ptr %0, i64 24
  store ptr %9, ptr %10, align 8
  %11 = getelementptr inbounds i8, ptr %0, i64 32
  store i64 %4, ptr %11, align 8
  br label %_ZN19ParallelCompactData22initialize_region_dataEm.exit

_ZN19ParallelCompactData22initialize_region_dataEm.exit: ; preds = %3, %7
  ret i1 %.not.i
}